target datalayout = "e-m:e-p270:32:32-p271:32:32-p272:64:64-i64:64-i128:128-f80:128-n8:16:32:64-S128"
target triple = "x86_64-pc-linux-gnu"

%struct.freelist = type { ptr, ptr, i32 }
%struct.Halfedge = type { ptr, ptr, ptr, i32, i8, ptr, double, ptr }

@hfl = internal global %struct.freelist zeroinitializer, align 8

; Function Attrs: nounwind uwtable
define ptr @HEcreate(ptr noundef %0, i8 noundef signext %1) #0 {
  %3 = alloca ptr, align 8
  %4 = alloca i8, align 1
  %5 = alloca ptr, align 8
  store ptr %0, ptr %3, align 8, !tbaa !25
  store i8 %1, ptr %4, align 1, !tbaa !26
  call void @llvm.lifetime.start.p0(i64 8, ptr %5) #9
  %6 = call ptr @getfree(ptr noundef @hfl)
  store ptr %6, ptr %5, align 8, !tbaa !10
  %7 = load ptr, ptr %3, align 8, !tbaa !25
  %8 = load ptr, ptr %5, align 8, !tbaa !10
  %9 = getelementptr inbounds nuw %struct.Halfedge, ptr %8, i32 0, i32 2
  store ptr %7, ptr %9, align 8, !tbaa !27
  %10 = load i8, ptr %4, align 1, !tbaa !26
  %11 = load ptr, ptr %5, align 8, !tbaa !10
  %12 = getelementptr inbounds nuw %struct.Halfedge, ptr %11, i32 0, i32 4
  store i8 %10, ptr %12, align 4, !tbaa !28
  %13 = load ptr, ptr %5, align 8, !tbaa !10
  %14 = getelementptr inbounds nuw %struct.Halfedge, ptr %13, i32 0, i32 7
  store ptr null, ptr %14, align 8, !tbaa !29
  %15 = load ptr, ptr %5, align 8, !tbaa !10
  %16 = getelementptr inbounds nuw %struct.Halfedge, ptr %15, i32 0, i32 5
  store ptr null, ptr %16, align 8, !tbaa !30
  %17 = load ptr, ptr %5, align 8, !tbaa !10
  %18 = getelementptr inbounds nuw %struct.Halfedge, ptr %17, i32 0, i32 3
  store i32 0, ptr %18, align 8, !tbaa !31
  %19 = load ptr, ptr %5, align 8, !tbaa !10
  call void @llvm.lifetime.end.p0(i64 8, ptr %5) #9
  ret ptr %19
}