; Function Attrs: nounwind uwtable
define ptr @HEcreate(ptr noundef %0, i8 noundef signext %1) local_unnamed_addr #0 {
  %3 = tail call ptr @getfree(ptr noundef nonnull @hfl) #13
  %4 = getelementptr inbounds nuw i8, ptr %3, i64 16
  store ptr %0, ptr %4, align 8, !tbaa !14
  %5 = getelementptr inbounds nuw i8, ptr %3, i64 28
  store i8 %1, ptr %5, align 4, !tbaa !19
  %6 = getelementptr inbounds nuw i8, ptr %3, i64 48
  store ptr null, ptr %6, align 8, !tbaa !20
  %7 = getelementptr inbounds nuw i8, ptr %3, i64 32
  store ptr null, ptr %7, align 8, !tbaa !21
  %8 = getelementptr inbounds nuw i8, ptr %3, i64 24
  store i32 0, ptr %8, align 8, !tbaa !22
  ret ptr %3
}